target datalayout = "e-m:e-p270:32:32-p271:32:32-p272:64:64-i64:64-i128:128-f80:128-n8:16:32:64-S128"
target triple = "x86_64-unknown-linux-gnu"

%"struct.std::_Vector_base.127" = type { %"struct.std::_Vector_base<glTF2::Texture *, std::allocator<glTF2::Texture *>>::_Vector_impl" }
%"struct.std::_Vector_base<glTF2::Texture *, std::allocator<glTF2::Texture *>>::_Vector_impl" = type { %"struct.std::_Vector_base<glTF2::Texture *, std::allocator<glTF2::Texture *>>::_Vector_impl_data" }
%"struct.std::_Vector_base<glTF2::Texture *, std::allocator<glTF2::Texture *>>::_Vector_impl_data" = type { ptr, ptr, ptr }
%"struct.glTF2::TextureInfo" = type { %"class.glTFCommon::Ref.163", i32, i32, i8, %"struct.glTF2::TextureInfo::TextureTransformExt" }
%"class.glTFCommon::Ref.163" = type <{ ptr, i32, [4 x i8] }>
%"struct.glTF2::TextureInfo::TextureTransformExt" = type { [2 x float], float, [2 x float] }
%"struct.glTF2::MaterialClearcoat" = type { float, float, %"struct.glTF2::TextureInfo", %"struct.glTF2::TextureInfo", %"struct.glTF2::NormalTextureInfo" }
%"struct.glTF2::NormalTextureInfo" = type { %"struct.glTF2::TextureInfo", float, [4 x i8] }

@.str.24 = private unnamed_addr constant [6 x i8] c"scale\00", align 1
@.str.34 = private unnamed_addr constant [22 x i8] c"$mat.clearcoat.factor\00", align 1
@.str.35 = private unnamed_addr constant [31 x i8] c"$mat.clearcoat.roughnessFactor\00", align 1

; Function Attrs: mustprogress nounwind uwtable
define linkonce_odr hidden noundef i64 @_ZNKSt6vectorIPN5glTF27TextureESaIS2_EE4sizeEv(ptr noundef nonnull align 8 dereferenceable(24) %this) #0 comdat align 2 {
entry:
  %this.addr = alloca ptr, align 8
  store ptr %this, ptr %this.addr, align 8
  %this1 = load ptr, ptr %this.addr, align 8
  %_M_impl = getelementptr inbounds %"struct.std::_Vector_base.127", ptr %this1, i32 0, i32 0
  %_M_finish = getelementptr inbounds %"struct.std::_Vector_base<glTF2::Texture *, std::allocator<glTF2::Texture *>>::_Vector_impl_data", ptr %_M_impl, i32 0, i32 1
  %0 = load ptr, ptr %_M_finish, align 8
  %_M_impl2 = getelementptr inbounds %"struct.std::_Vector_base.127", ptr %this1, i32 0, i32 0
  %_M_start = getelementptr inbounds %"struct.std::_Vector_base<glTF2::Texture *, std::allocator<glTF2::Texture *>>::_Vector_impl_data", ptr %_M_impl2, i32 0, i32 0
  %1 = load ptr, ptr %_M_start, align 8
  %sub.ptr.lhs.cast = ptrtoint ptr %0 to i64
  %sub.ptr.rhs.cast = ptrtoint ptr %1 to i64
  %sub.ptr.sub = sub i64 %sub.ptr.lhs.cast, %sub.ptr.rhs.cast
  %sub.ptr.div = sdiv exact i64 %sub.ptr.sub, 8
  ret i64 %sub.ptr.div
}

; Function Attrs: mustprogress nounwind uwtable
define linkonce_odr hidden noundef zeroext i1 @_ZNK10glTFCommon3RefIN5glTF27TextureEEcvbEv(ptr noundef nonnull align 8 dereferenceable(12) %this) #0 comdat align 2 {
entry:
  %this.addr = alloca ptr, align 8
  store ptr %this, ptr %this.addr, align 8
  %this1 = load ptr, ptr %this.addr, align 8
  %vector = getelementptr inbounds %"class.glTFCommon::Ref.163", ptr %this1, i32 0, i32 0
  %0 = load ptr, ptr %vector, align 8
  %cmp = icmp ne ptr %0, null
  br i1 %cmp, label %land.rhs, label %land.end

land.rhs:                                         ; preds = %entry
  %index = getelementptr inbounds %"class.glTFCommon::Ref.163", ptr %this1, i32 0, i32 1
  %1 = load i32, ptr %index, align 8
  %conv = zext i32 %1 to i64
  %vector2 = getelementptr inbounds %"class.glTFCommon::Ref.163", ptr %this1, i32 0, i32 0
  %2 = load ptr, ptr %vector2, align 8
  %call = call noundef i64 @_ZNKSt6vectorIPN5glTF27TextureESaIS2_EE4sizeEv(ptr noundef nonnull align 8 dereferenceable(24) %2) #18
  %cmp3 = icmp ult i64 %conv, %call
  br label %land.end

land.end:                                         ; preds = %land.rhs, %entry
  %3 = phi i1 [ false, %entry ], [ %cmp3, %land.rhs ]
  ret i1 %3
}

; Function Attrs: mustprogress uwtable
define linkonce_odr hidden i32 @aiGetMaterialFloat(ptr noundef %pMat, ptr noundef %pKey, i32 noundef %type, i32 noundef %index, ptr noundef %pOut) #3 comdat {
entry:
  %pMat.addr = alloca ptr, align 8
  %pKey.addr = alloca ptr, align 8
  %type.addr = alloca i32, align 4
  %index.addr = alloca i32, align 4
  %pOut.addr = alloca ptr, align 8
  store ptr %pMat, ptr %pMat.addr, align 8
  store ptr %pKey, ptr %pKey.addr, align 8
  store i32 %type, ptr %type.addr, align 4
  store i32 %index, ptr %index.addr, align 4
  store ptr %pOut, ptr %pOut.addr, align 8
  %0 = load ptr, ptr %pMat.addr, align 8
  %1 = load ptr, ptr %pKey.addr, align 8
  %2 = load i32, ptr %type.addr, align 4
  %3 = load i32, ptr %index.addr, align 4
  %4 = load ptr, ptr %pOut.addr, align 8
  %call = call i32 @aiGetMaterialFloatArray(ptr noundef %0, ptr noundef %1, i32 noundef %2, i32 noundef %3, ptr noundef %4, ptr noundef null)
  ret i32 %call
}

; Function Attrs: mustprogress uwtable
define hidden void @_ZN6Assimp13glTF2Exporter9GetMatTexERK10aiMaterialRN5glTF217NormalTextureInfoE13aiTextureTypej(ptr noundef nonnull align 8 dereferenceable(120) %this, ptr noundef nonnull align 8 dereferenceable(16) %mat, ptr noundef nonnull align 8 dereferenceable(52) %prop, i32 noundef %tt, i32 noundef %slot) #3 align 2 {
entry:
  %this.addr = alloca ptr, align 8
  %mat.addr = alloca ptr, align 8
  %prop.addr = alloca ptr, align 8
  %tt.addr = alloca i32, align 4
  %slot.addr = alloca i32, align 4
  %texture = alloca ptr, align 8
  store ptr %this, ptr %this.addr, align 8
  store ptr %mat, ptr %mat.addr, align 8
  store ptr %prop, ptr %prop.addr, align 8
  store i32 %tt, ptr %tt.addr, align 4
  store i32 %slot, ptr %slot.addr, align 4
  %this1 = load ptr, ptr %this.addr, align 8
  %0 = load ptr, ptr %prop.addr, align 8
  %texture2 = getelementptr inbounds %"struct.glTF2::TextureInfo", ptr %0, i32 0, i32 0
  store ptr %texture2, ptr %texture, align 8
  %1 = load ptr, ptr %mat.addr, align 8
  %2 = load ptr, ptr %texture, align 8
  %3 = load ptr, ptr %prop.addr, align 8
  %texCoord = getelementptr inbounds %"struct.glTF2::TextureInfo", ptr %3, i32 0, i32 2
  %4 = load i32, ptr %tt.addr, align 4
  %5 = load i32, ptr %slot.addr, align 4
  call void @_ZN6Assimp13glTF2Exporter9GetMatTexERK10aiMaterialRN10glTFCommon3RefIN5glTF27TextureEEERj13aiTextureTypej(ptr noundef nonnull align 8 dereferenceable(120) %this1, ptr noundef nonnull align 8 dereferenceable(16) %1, ptr noundef nonnull align 8 dereferenceable(12) %2, ptr noundef nonnull align 4 dereferenceable(4) %texCoord, i32 noundef %4, i32 noundef %5)
  %6 = load ptr, ptr %texture, align 8
  %call = call noundef zeroext i1 @_ZNK10glTFCommon3RefIN5glTF27TextureEEcvbEv(ptr noundef nonnull align 8 dereferenceable(12) %6)
  br i1 %call, label %if.then, label %if.end

if.then:                                          ; preds = %entry
  %7 = load ptr, ptr %mat.addr, align 8
  %8 = load ptr, ptr %prop.addr, align 8
  %scale = getelementptr inbounds %"struct.glTF2::NormalTextureInfo", ptr %8, i32 0, i32 1
  %9 = load i32, ptr %tt.addr, align 4
  %10 = load i32, ptr %slot.addr, align 4
  call void @_ZN6Assimp13glTF2Exporter13GetMatTexPropERK10aiMaterialRfPKc13aiTextureTypej(ptr noundef nonnull align 8 dereferenceable(120) %this1, ptr noundef nonnull align 8 dereferenceable(16) %7, ptr noundef nonnull align 4 dereferenceable(4) %scale, ptr noundef @.str.24, i32 noundef %9, i32 noundef %10)
  br label %if.end

if.end:                                           ; preds = %if.then, %entry
  ret void
}

; Function Attrs: mustprogress uwtable
define hidden void @_ZN6Assimp13glTF2Exporter9GetMatTexERK10aiMaterialRN5glTF211TextureInfoE13aiTextureTypej(ptr noundef nonnull align 8 dereferenceable(120) %this, ptr noundef nonnull align 8 dereferenceable(16) %mat, ptr noundef nonnull align 8 dereferenceable(48) %prop, i32 noundef %tt, i32 noundef %slot) #3 align 2 {
entry:
  %this.addr = alloca ptr, align 8
  %mat.addr = alloca ptr, align 8
  %prop.addr = alloca ptr, align 8
  %tt.addr = alloca i32, align 4
  %slot.addr = alloca i32, align 4
  %texture = alloca ptr, align 8
  store ptr %this, ptr %this.addr, align 8
  store ptr %mat, ptr %mat.addr, align 8
  store ptr %prop, ptr %prop.addr, align 8
  store i32 %tt, ptr %tt.addr, align 4
  store i32 %slot, ptr %slot.addr, align 4
  %this1 = load ptr, ptr %this.addr, align 8
  %0 = load ptr, ptr %prop.addr, align 8
  %texture2 = getelementptr inbounds %"struct.glTF2::TextureInfo", ptr %0, i32 0, i32 0
  store ptr %texture2, ptr %texture, align 8
  %1 = load ptr, ptr %mat.addr, align 8
  %2 = load ptr, ptr %texture, align 8
  %3 = load ptr, ptr %prop.addr, align 8
  %texCoord = getelementptr inbounds %"struct.glTF2::TextureInfo", ptr %3, i32 0, i32 2
  %4 = load i32, ptr %tt.addr, align 4
  %5 = load i32, ptr %slot.addr, align 4
  call void @_ZN6Assimp13glTF2Exporter9GetMatTexERK10aiMaterialRN10glTFCommon3RefIN5glTF27TextureEEERj13aiTextureTypej(ptr noundef nonnull align 8 dereferenceable(120) %this1, ptr noundef nonnull align 8 dereferenceable(16) %1, ptr noundef nonnull align 8 dereferenceable(12) %2, ptr noundef nonnull align 4 dereferenceable(4) %texCoord, i32 noundef %4, i32 noundef %5)
  ret void
}

; Function Attrs: mustprogress uwtable
define linkonce_odr noundef i32 @_ZNK10aiMaterial3GetEPKcjjRf(ptr noundef nonnull align 8 dereferenceable(16) %this, ptr noundef %pKey, i32 noundef %type, i32 noundef %idx, ptr noundef nonnull align 4 dereferenceable(4) %pOut) #3 comdat align 2 {
entry:
  %this.addr = alloca ptr, align 8
  %pKey.addr = alloca ptr, align 8
  %type.addr = alloca i32, align 4
  %idx.addr = alloca i32, align 4
  %pOut.addr = alloca ptr, align 8
  store ptr %this, ptr %this.addr, align 8
  store ptr %pKey, ptr %pKey.addr, align 8
  store i32 %type, ptr %type.addr, align 4
  store i32 %idx, ptr %idx.addr, align 4
  store ptr %pOut, ptr %pOut.addr, align 8
  %this1 = load ptr, ptr %this.addr, align 8
  %0 = load ptr, ptr %pKey.addr, align 8
  %1 = load i32, ptr %type.addr, align 4
  %2 = load i32, ptr %idx.addr, align 4
  %3 = load ptr, ptr %pOut.addr, align 8
  %call = call i32 @aiGetMaterialFloat(ptr noundef %this1, ptr noundef %0, i32 noundef %1, i32 noundef %2, ptr noundef %3)
  ret i32 %call
}

; Function Attrs: mustprogress uwtable
define hidden noundef zeroext i1 @_ZN6Assimp13glTF2Exporter15GetMatClearcoatERK10aiMaterialRN5glTF217MaterialClearcoatE(ptr noundef nonnull align 8 dereferenceable(120) %this, ptr noundef nonnull align 8 dereferenceable(16) %mat, ptr noundef nonnull align 8 dereferenceable(160) %clearcoat) #3 align 2 {
entry:
  %retval = alloca i1, align 1
  %this.addr = alloca ptr, align 8
  %mat.addr = alloca ptr, align 8
  %clearcoat.addr = alloca ptr, align 8
  store ptr %this, ptr %this.addr, align 8
  store ptr %mat, ptr %mat.addr, align 8
  store ptr %clearcoat, ptr %clearcoat.addr, align 8
  %this1 = load ptr, ptr %this.addr, align 8
  %0 = load ptr, ptr %mat.addr, align 8
  %1 = load ptr, ptr %clearcoat.addr, align 8
  %clearcoatFactor = getelementptr inbounds %"struct.glTF2::MaterialClearcoat", ptr %1, i32 0, i32 0
  %call = call noundef i32 @_ZNK10aiMaterial3GetEPKcjjRf(ptr noundef nonnull align 8 dereferenceable(16) %0, ptr noundef @.str.34, i32 noundef 0, i32 noundef 0, ptr noundef nonnull align 4 dereferenceable(4) %clearcoatFactor)
  %cmp = icmp ne i32 %call, 0
  br i1 %cmp, label %if.then, label %if.end

if.then:                                          ; preds = %entry
  store i1 false, ptr %retval, align 1
  br label %return

if.end:                                           ; preds = %entry
  %2 = load ptr, ptr %clearcoat.addr, align 8
  %clearcoatFactor2 = getelementptr inbounds %"struct.glTF2::MaterialClearcoat", ptr %2, i32 0, i32 0
  %3 = load float, ptr %clearcoatFactor2, align 8
  %cmp3 = fcmp oeq float %3, 0.000000e+00
  br i1 %cmp3, label %if.then4, label %if.end5

if.then4:                                         ; preds = %if.end
  store i1 false, ptr %retval, align 1
  br label %return

if.end5:                                          ; preds = %if.end
  %4 = load ptr, ptr %mat.addr, align 8
  %5 = load ptr, ptr %clearcoat.addr, align 8
  %clearcoatRoughnessFactor = getelementptr inbounds %"struct.glTF2::MaterialClearcoat", ptr %5, i32 0, i32 1
  %call6 = call noundef i32 @_ZNK10aiMaterial3GetEPKcjjRf(ptr noundef nonnull align 8 dereferenceable(16) %4, ptr noundef @.str.35, i32 noundef 0, i32 noundef 0, ptr noundef nonnull align 4 dereferenceable(4) %clearcoatRoughnessFactor)
  %6 = load ptr, ptr %mat.addr, align 8
  %7 = load ptr, ptr %clearcoat.addr, align 8
  %clearcoatTexture = getelementptr inbounds %"struct.glTF2::MaterialClearcoat", ptr %7, i32 0, i32 2
  call void @_ZN6Assimp13glTF2Exporter9GetMatTexERK10aiMaterialRN5glTF211TextureInfoE13aiTextureTypej(ptr noundef nonnull align 8 dereferenceable(120) %this1, ptr noundef nonnull align 8 dereferenceable(16) %6, ptr noundef nonnull align 8 dereferenceable(48) %clearcoatTexture, i32 noundef 20, i32 noundef 0)
  %8 = load ptr, ptr %mat.addr, align 8
  %9 = load ptr, ptr %clearcoat.addr, align 8
  %clearcoatRoughnessTexture = getelementptr inbounds %"struct.glTF2::MaterialClearcoat", ptr %9, i32 0, i32 3
  call void @_ZN6Assimp13glTF2Exporter9GetMatTexERK10aiMaterialRN5glTF211TextureInfoE13aiTextureTypej(ptr noundef nonnull align 8 dereferenceable(120) %this1, ptr noundef nonnull align 8 dereferenceable(16) %8, ptr noundef nonnull align 8 dereferenceable(48) %clearcoatRoughnessTexture, i32 noundef 20, i32 noundef 1)
  %10 = load ptr, ptr %mat.addr, align 8
  %11 = load ptr, ptr %clearcoat.addr, align 8
  %clearcoatNormalTexture = getelementptr inbounds %"struct.glTF2::MaterialClearcoat", ptr %11, i32 0, i32 4
  call void @_ZN6Assimp13glTF2Exporter9GetMatTexERK10aiMaterialRN5glTF217NormalTextureInfoE13aiTextureTypej(ptr noundef nonnull align 8 dereferenceable(120) %this1, ptr noundef nonnull align 8 dereferenceable(16) %10, ptr noundef nonnull align 8 dereferenceable(52) %clearcoatNormalTexture, i32 noundef 20, i32 noundef 2)
  store i1 true, ptr %retval, align 1
  br label %return

return:                                           ; preds = %if.end5, %if.then4, %if.then
  %12 = load i1, ptr %retval, align 1
  ret i1 %12
}