; Function Attrs: mustprogress uwtable
define hidden noundef zeroext i1 @_ZN6Assimp13glTF2Exporter15GetMatClearcoatERK10aiMaterialRN5glTF217MaterialClearcoatE(ptr noundef nonnull align 8 dereferenceable(120) %this, ptr noundef nonnull align 8 dereferenceable(16) %mat, ptr noundef nonnull align 8 dereferenceable(160) %clearcoat) local_unnamed_addr #2 align 2 {
entry:
  %call.i.i = tail call noundef i32 @aiGetMaterialFloatArray(ptr noundef nonnull %mat, ptr noundef nonnull @.str.34, i32 noundef 0, i32 noundef 0, ptr noundef nonnull %clearcoat, ptr noundef null)
  %cmp.not = icmp eq i32 %call.i.i, 0
  %0 = load float, ptr %clearcoat, align 8
  %cmp3 = fcmp une float %0, 0.000000e+00
  %or.cond.not = select i1 %cmp.not, i1 %cmp3, i1 false
  br i1 %or.cond.not, label %if.end5, label %return

if.end5:                                          ; preds = %entry
  %clearcoatRoughnessFactor = getelementptr inbounds i8, ptr %clearcoat, i64 4
  %call.i.i10 = tail call noundef i32 @aiGetMaterialFloatArray(ptr noundef nonnull %mat, ptr noundef nonnull @.str.35, i32 noundef 0, i32 noundef 0, ptr noundef nonnull %clearcoatRoughnessFactor, ptr noundef null)
  %clearcoatTexture = getelementptr inbounds i8, ptr %clearcoat, i64 8
  %texCoord.i = getelementptr inbounds i8, ptr %clearcoat, i64 28
  tail call void @_ZN6Assimp13glTF2Exporter9GetMatTexERK10aiMaterialRN10glTFCommon3RefIN5glTF27TextureEEERj13aiTextureTypej(ptr noundef nonnull align 8 dereferenceable(120) %this, ptr noundef nonnull align 8 dereferenceable(16) %mat, ptr noundef nonnull align 8 dereferenceable(12) %clearcoatTexture, ptr noundef nonnull align 4 dereferenceable(4) %texCoord.i, i32 noundef 20, i32 noundef 0)
  %clearcoatRoughnessTexture = getelementptr inbounds i8, ptr %clearcoat, i64 56
  %texCoord.i11 = getelementptr inbounds i8, ptr %clearcoat, i64 76
  tail call void @_ZN6Assimp13glTF2Exporter9GetMatTexERK10aiMaterialRN10glTFCommon3RefIN5glTF27TextureEEERj13aiTextureTypej(ptr noundef nonnull align 8 dereferenceable(120) %this, ptr noundef nonnull align 8 dereferenceable(16) %mat, ptr noundef nonnull align 8 dereferenceable(12) %clearcoatRoughnessTexture, ptr noundef nonnull align 4 dereferenceable(4) %texCoord.i11, i32 noundef 20, i32 noundef 1)
  %clearcoatNormalTexture = getelementptr inbounds i8, ptr %clearcoat, i64 104
  %texCoord.i12 = getelementptr inbounds i8, ptr %clearcoat, i64 124
  tail call void @_ZN6Assimp13glTF2Exporter9GetMatTexERK10aiMaterialRN10glTFCommon3RefIN5glTF27TextureEEERj13aiTextureTypej(ptr noundef nonnull align 8 dereferenceable(120) %this, ptr noundef nonnull align 8 dereferenceable(16) %mat, ptr noundef nonnull align 8 dereferenceable(12) %clearcoatNormalTexture, ptr noundef nonnull align 4 dereferenceable(4) %texCoord.i12, i32 noundef 20, i32 noundef 2)
  %1 = load ptr, ptr %clearcoatNormalTexture, align 8
  %cmp.not.i.i = icmp eq ptr %1, null
  br i1 %cmp.not.i.i, label %return, label %_ZNK10glTFCommon3RefIN5glTF27TextureEEcvbEv.exit.i

_ZNK10glTFCommon3RefIN5glTF27TextureEEcvbEv.exit.i: ; preds = %if.end5
  %index.i.i = getelementptr inbounds i8, ptr %clearcoat, i64 112
  %2 = load i32, ptr %index.i.i, align 8
  %conv.i.i = zext i32 %2 to i64
  %_M_finish.i.i.i = getelementptr inbounds i8, ptr %1, i64 8
  %3 = load ptr, ptr %_M_finish.i.i.i, align 8
  %4 = load ptr, ptr %1, align 8
  %sub.ptr.lhs.cast.i.i.i = ptrtoint ptr %3 to i64
  %sub.ptr.rhs.cast.i.i.i = ptrtoint ptr %4 to i64
  %sub.ptr.sub.i.i.i = sub i64 %sub.ptr.lhs.cast.i.i.i, %sub.ptr.rhs.cast.i.i.i
  %sub.ptr.div.i.i.i = ashr exact i64 %sub.ptr.sub.i.i.i, 3
  %cmp3.i.i = icmp ugt i64 %sub.ptr.div.i.i.i, %conv.i.i
  br i1 %cmp3.i.i, label %if.then.i, label %return

if.then.i:                                        ; preds = %_ZNK10glTFCommon3RefIN5glTF27TextureEEcvbEv.exit.i
  %scale.i = getelementptr inbounds i8, ptr %clearcoat, i64 152
  tail call void @_ZN6Assimp13glTF2Exporter13GetMatTexPropERK10aiMaterialRfPKc13aiTextureTypej(ptr nonnull align 8 poison, ptr noundef nonnull align 8 dereferenceable(16) %mat, ptr noundef nonnull align 4 dereferenceable(4) %scale.i, ptr noundef nonnull @.str.24, i32 noundef 20, i32 noundef 2)
  br label %return

return:                                           ; preds = %if.then.i, %_ZNK10glTFCommon3RefIN5glTF27TextureEEcvbEv.exit.i, %if.end5, %entry
  ret i1 %or.cond.not
}